target datalayout = "e-m:e-p270:32:32-p271:32:32-p272:64:64-i64:64-i128:128-f80:128-n8:16:32:64-S128"
target triple = "x86_64-pc-linux-gnu"

%struct.expert_field = type { i32, i32 }
%struct._packet_info = type { ptr, ptr, i32, i32, %struct.nstime_t, %struct.nstime_t, %struct.nstime_t, i8, ptr, ptr, ptr, ptr, %struct._address, %struct._address, %struct._address, %struct._address, %struct._address, %struct._address, i32, ptr, i8, [3 x i8], %struct.anon, i32, i32, i32, i32, ptr, i8, ptr, ptr, i16, i16, i32, i32, i16, i32, i32, ptr, ptr, ptr, i8, i8, i16, i16, i16, i32, i16, i16, ptr, ptr, ptr, ptr, ptr, i32, i32 }
%struct.nstime_t = type { i64, i32 }
%struct._address = type { i32, i32, ptr, ptr }
%struct.anon = type { i8, [3 x i8] }
%struct._diam_ctx_t = type { ptr, ptr, ptr }
%struct._proto_node = type { ptr, ptr, ptr, ptr, ptr, ptr, ptr }
%struct._diam_avp_t = type { i32, ptr, ptr, i32, i32, ptr }
%struct._address_avp_t = type { i32, i32, i32, i32, i32, i32 }

@.str.70 = private unnamed_addr constant [3 x i8] c": \00", align 1
@ei_diameter_avp_len = internal global %struct.expert_field zeroinitializer, align 4
@.str.135 = private unnamed_addr constant [47 x i8] c"Wrong length for IPv4 Address: %d instead of 4\00", align 1
@.str.136 = private unnamed_addr constant [12 x i8] c"[Malformed]\00", align 1
@.str.137 = private unnamed_addr constant [48 x i8] c"Wrong length for IPv6 Address: %d instead of 16\00", align 1

; Function Attrs: null_pointer_is_valid sspstrong uwtable
define internal ptr @address_rfc_avp(ptr noundef %0, ptr noundef %1, ptr noundef %2, ptr noundef %3) #0 {
  %5 = alloca ptr, align 8
  %6 = alloca ptr, align 8
  %7 = alloca ptr, align 8
  %8 = alloca ptr, align 8
  %9 = alloca ptr, align 8
  %10 = alloca ptr, align 8
  %11 = alloca ptr, align 8
  %12 = alloca i32, align 4
  %13 = alloca ptr, align 8
  %14 = alloca ptr, align 8
  %15 = alloca i32, align 4
  %16 = alloca i32, align 4
  store ptr %0, ptr %6, align 8
  store ptr %1, ptr %7, align 8
  store ptr %2, ptr %8, align 8
  store ptr %3, ptr %9, align 8
  call void @llvm.lifetime.start.p0(i64 8, ptr %10) #14
  store ptr null, ptr %10, align 8
  call void @llvm.lifetime.start.p0(i64 8, ptr %11) #14
  %17 = load ptr, ptr %7, align 8
  %18 = getelementptr inbounds nuw %struct._diam_avp_t, ptr %17, i32 0, i32 5
  %19 = load ptr, ptr %18, align 8
  store ptr %19, ptr %11, align 8
  call void @llvm.lifetime.start.p0(i64 4, ptr %12) #14
  %20 = load ptr, ptr %8, align 8
  %21 = call i32 @tvb_reported_length(ptr noundef %20)
  store i32 %21, ptr %12, align 4
  call void @llvm.lifetime.start.p0(i64 8, ptr %13) #14
  %22 = load ptr, ptr %6, align 8
  %23 = getelementptr inbounds nuw %struct._diam_ctx_t, ptr %22, i32 0, i32 0
  %24 = load ptr, ptr %23, align 8
  %25 = load ptr, ptr %7, align 8
  %26 = getelementptr inbounds nuw %struct._diam_avp_t, ptr %25, i32 0, i32 4
  %27 = load i32, ptr %26, align 4
  %28 = load ptr, ptr %8, align 8
  %29 = load i32, ptr %12, align 4
  %30 = call ptr @proto_tree_add_item(ptr noundef %24, i32 noundef %27, ptr noundef %28, i32 noundef 0, i32 noundef %29, i32 noundef 0)
  store ptr %30, ptr %13, align 8
  call void @llvm.lifetime.start.p0(i64 8, ptr %14) #14
  %31 = load ptr, ptr %13, align 8
  %32 = load ptr, ptr %11, align 8
  %33 = getelementptr inbounds nuw %struct._address_avp_t, ptr %32, i32 0, i32 0
  %34 = load i32, ptr %33, align 4
  %35 = call ptr @proto_item_add_subtree(ptr noundef %31, i32 noundef %34)
  store ptr %35, ptr %14, align 8
  call void @llvm.lifetime.start.p0(i64 4, ptr %15) #14
  %36 = load i32, ptr %12, align 4
  %37 = sub i32 %36, 2
  store i32 %37, ptr %12, align 4
  %38 = load ptr, ptr %14, align 8
  %39 = load ptr, ptr %11, align 8
  %40 = getelementptr inbounds nuw %struct._address_avp_t, ptr %39, i32 0, i32 1
  %41 = load i32, ptr %40, align 4
  %42 = load ptr, ptr %8, align 8
  %43 = call ptr @proto_tree_add_item_ret_uint(ptr noundef %38, i32 noundef %41, ptr noundef %42, i32 noundef 0, i32 noundef 2, i32 noundef 0, ptr noundef %15)
  %44 = load i32, ptr %15, align 4
  switch i32 %44, label %103 [
    i32 1, label %45
    i32 2, label %64
    i32 8, label %83
  ]

45:                                               ; preds = %4
  %46 = load i32, ptr %12, align 4
  %47 = icmp ne i32 %46, 4
  br i1 %47, label %48, label %57

48:                                               ; preds = %45
  %49 = load ptr, ptr %14, align 8
  %50 = load ptr, ptr %6, align 8
  %51 = getelementptr inbounds nuw %struct._diam_ctx_t, ptr %50, i32 0, i32 1
  %52 = load ptr, ptr %51, align 8
  %53 = load ptr, ptr %8, align 8
  %54 = load i32, ptr %12, align 4
  %55 = load i32, ptr %12, align 4
  %56 = call ptr (ptr, ptr, ptr, ptr, i32, i32, ptr, ...) @proto_tree_add_expert_format(ptr noundef %49, ptr noundef %52, ptr noundef @ei_diameter_avp_len, ptr noundef %53, i32 noundef 2, i32 noundef %54, ptr noundef @.str.135, i32 noundef %55)
  store ptr @.str.136, ptr %5, align 8
  store i32 1, ptr %16, align 4
  br label %131

57:                                               ; preds = %45
  %58 = load ptr, ptr %14, align 8
  %59 = load ptr, ptr %11, align 8
  %60 = getelementptr inbounds nuw %struct._address_avp_t, ptr %59, i32 0, i32 2
  %61 = load i32, ptr %60, align 4
  %62 = load ptr, ptr %8, align 8
  %63 = call ptr @proto_tree_add_item(ptr noundef %58, i32 noundef %61, ptr noundef %62, i32 noundef 2, i32 noundef 4, i32 noundef 0)
  store ptr %63, ptr %13, align 8
  br label %110

64:                                               ; preds = %4
  %65 = load i32, ptr %12, align 4
  %66 = icmp ne i32 %65, 16
  br i1 %66, label %67, label %76

67:                                               ; preds = %64
  %68 = load ptr, ptr %14, align 8
  %69 = load ptr, ptr %6, align 8
  %70 = getelementptr inbounds nuw %struct._diam_ctx_t, ptr %69, i32 0, i32 1
  %71 = load ptr, ptr %70, align 8
  %72 = load ptr, ptr %8, align 8
  %73 = load i32, ptr %12, align 4
  %74 = load i32, ptr %12, align 4
  %75 = call ptr (ptr, ptr, ptr, ptr, i32, i32, ptr, ...) @proto_tree_add_expert_format(ptr noundef %68, ptr noundef %71, ptr noundef @ei_diameter_avp_len, ptr noundef %72, i32 noundef 2, i32 noundef %73, ptr noundef @.str.137, i32 noundef %74)
  store ptr @.str.136, ptr %5, align 8
  store i32 1, ptr %16, align 4
  br label %131

76:                                               ; preds = %64
  %77 = load ptr, ptr %14, align 8
  %78 = load ptr, ptr %11, align 8
  %79 = getelementptr inbounds nuw %struct._address_avp_t, ptr %78, i32 0, i32 3
  %80 = load i32, ptr %79, align 4
  %81 = load ptr, ptr %8, align 8
  %82 = call ptr @proto_tree_add_item(ptr noundef %77, i32 noundef %80, ptr noundef %81, i32 noundef 2, i32 noundef 16, i32 noundef 0)
  store ptr %82, ptr %13, align 8
  br label %110

83:                                               ; preds = %4
  %84 = load ptr, ptr %8, align 8
  %85 = load i32, ptr %12, align 4
  %86 = call zeroext i1 @tvb_ascii_isprint(ptr noundef %84, i32 noundef 2, i32 noundef %85)
  br i1 %86, label %87, label %95

87:                                               ; preds = %83
  %88 = load ptr, ptr %14, align 8
  %89 = load ptr, ptr %11, align 8
  %90 = getelementptr inbounds nuw %struct._address_avp_t, ptr %89, i32 0, i32 4
  %91 = load i32, ptr %90, align 4
  %92 = load ptr, ptr %8, align 8
  %93 = load i32, ptr %12, align 4
  %94 = call ptr @proto_tree_add_item(ptr noundef %88, i32 noundef %91, ptr noundef %92, i32 noundef 2, i32 noundef %93, i32 noundef 0)
  store ptr %94, ptr %13, align 8
  br label %102

95:                                               ; preds = %83
  %96 = load ptr, ptr %14, align 8
  %97 = load ptr, ptr %11, align 8
  %98 = getelementptr inbounds nuw %struct._address_avp_t, ptr %97, i32 0, i32 5
  %99 = load i32, ptr %98, align 4
  %100 = load ptr, ptr %8, align 8
  %101 = call ptr @proto_tree_add_item(ptr noundef %96, i32 noundef %99, ptr noundef %100, i32 noundef 2, i32 noundef -1, i32 noundef 0)
  store ptr %101, ptr %13, align 8
  br label %102

102:                                              ; preds = %95, %87
  br label %110

103:                                              ; preds = %4
  %104 = load ptr, ptr %14, align 8
  %105 = load ptr, ptr %11, align 8
  %106 = getelementptr inbounds nuw %struct._address_avp_t, ptr %105, i32 0, i32 5
  %107 = load i32, ptr %106, align 4
  %108 = load ptr, ptr %8, align 8
  %109 = call ptr @proto_tree_add_item(ptr noundef %104, i32 noundef %107, ptr noundef %108, i32 noundef 2, i32 noundef -1, i32 noundef 0)
  store ptr %109, ptr %13, align 8
  br label %110

110:                                              ; preds = %103, %102, %76, %57
  %111 = load ptr, ptr %6, align 8
  %112 = getelementptr inbounds nuw %struct._diam_ctx_t, ptr %111, i32 0, i32 0
  %113 = load ptr, ptr %112, align 8
  %114 = icmp ne ptr %113, null
  br i1 %114, label %115, label %129

115:                                              ; preds = %110
  %116 = load ptr, ptr %6, align 8
  %117 = getelementptr inbounds nuw %struct._diam_ctx_t, ptr %116, i32 0, i32 1
  %118 = load ptr, ptr %117, align 8
  %119 = getelementptr inbounds nuw %struct._packet_info, ptr %118, i32 0, i32 51
  %120 = load ptr, ptr %119, align 8
  %121 = call noalias ptr @wmem_alloc(ptr noundef %120, i64 noundef 241) #15
  store ptr %121, ptr %10, align 8
  %122 = load ptr, ptr %13, align 8
  %123 = getelementptr inbounds nuw %struct._proto_node, ptr %122, i32 0, i32 5
  %124 = load ptr, ptr %123, align 8
  %125 = load ptr, ptr %10, align 8
  call void @proto_item_fill_label(ptr noundef %124, ptr noundef %125, ptr noundef null)
  %126 = load ptr, ptr %10, align 8
  %127 = call ptr @strstr(ptr noundef %126, ptr noundef @.str.70) #17
  %128 = getelementptr i8, ptr %127, i64 2
  store ptr %128, ptr %10, align 8
  br label %129

129:                                              ; preds = %115, %110
  %130 = load ptr, ptr %10, align 8
  store ptr %130, ptr %5, align 8
  store i32 1, ptr %16, align 4
  br label %131

131:                                              ; preds = %129, %67, %48
  call void @llvm.lifetime.end.p0(i64 4, ptr %15) #14
  call void @llvm.lifetime.end.p0(i64 8, ptr %14) #14
  call void @llvm.lifetime.end.p0(i64 8, ptr %13) #14
  call void @llvm.lifetime.end.p0(i64 4, ptr %12) #14
  call void @llvm.lifetime.end.p0(i64 8, ptr %11) #14
  call void @llvm.lifetime.end.p0(i64 8, ptr %10) #14
  %132 = load ptr, ptr %5, align 8
  ret ptr %132
}