; Function Attrs: null_pointer_is_valid sspstrong uwtable
define internal ptr @address_rfc_avp(ptr noundef readonly captures(none) %0, ptr noundef readonly captures(none) %1, ptr noundef %2, ptr readnone captures(none) %3) #0 {
  %5 = alloca i32, align 4
  %6 = getelementptr inbounds nuw i8, ptr %1, i64 32
  %7 = load ptr, ptr %6, align 8
  %8 = tail call i32 @tvb_reported_length(ptr noundef %2)
  %9 = load ptr, ptr %0, align 8
  %10 = getelementptr inbounds nuw i8, ptr %1, i64 28
  %11 = load i32, ptr %10, align 4
  %12 = tail call ptr @proto_tree_add_item(ptr noundef %9, i32 noundef %11, ptr noundef %2, i32 noundef 0, i32 noundef %8, i32 noundef 0)
  %13 = load i32, ptr %7, align 4
  %14 = tail call ptr @proto_item_add_subtree(ptr noundef %12, i32 noundef %13)
  call void @llvm.lifetime.start.p0(i64 4, ptr nonnull %5) #16
  %15 = add i32 %8, -2
  %16 = getelementptr inbounds nuw i8, ptr %7, i64 4
  %17 = load i32, ptr %16, align 4
  %18 = call ptr @proto_tree_add_item_ret_uint(ptr noundef %14, i32 noundef %17, ptr noundef %2, i32 noundef 0, i32 noundef 2, i32 noundef 0, ptr noundef nonnull %5)
  %19 = load i32, ptr %5, align 4
  switch i32 %19, label %32 [
    i32 1, label %20
    i32 2, label %25
    i32 8, label %30
  ]

20:                                               ; preds = %4
  %.not51 = icmp eq i32 %15, 4
  br i1 %.not51, label %32, label %21

21:                                               ; preds = %20
  %22 = getelementptr inbounds nuw i8, ptr %0, i64 8
  %23 = load ptr, ptr %22, align 8
  %24 = call ptr (ptr, ptr, ptr, ptr, i32, i32, ptr, ...) @proto_tree_add_expert_format(ptr noundef %14, ptr noundef %23, ptr noundef nonnull @ei_diameter_avp_len, ptr noundef %2, i32 noundef 2, i32 noundef %15, ptr noundef nonnull @.str.135, i32 noundef %15)
  br label %47

25:                                               ; preds = %4
  %.not = icmp eq i32 %15, 16
  br i1 %.not, label %32, label %26

26:                                               ; preds = %25
  %27 = getelementptr inbounds nuw i8, ptr %0, i64 8
  %28 = load ptr, ptr %27, align 8
  %29 = call ptr (ptr, ptr, ptr, ptr, i32, i32, ptr, ...) @proto_tree_add_expert_format(ptr noundef %14, ptr noundef %28, ptr noundef nonnull @ei_diameter_avp_len, ptr noundef %2, i32 noundef 2, i32 noundef %15, ptr noundef nonnull @.str.137, i32 noundef %15)
  br label %47

30:                                               ; preds = %4
  %31 = call zeroext i1 @tvb_ascii_isprint(ptr noundef %2, i32 noundef 2, i32 noundef %15)
  %. = select i1 %31, i64 16, i64 20
  %.55 = select i1 %31, i32 %15, i32 -1
  br label %32

32:                                               ; preds = %4, %30, %25, %20
  %.sink = phi i64 [ 8, %20 ], [ 12, %25 ], [ %., %30 ], [ 20, %4 ]
  %.sink53 = phi i32 [ 4, %20 ], [ 16, %25 ], [ %.55, %30 ], [ -1, %4 ]
  %33 = getelementptr inbounds nuw i8, ptr %7, i64 %.sink
  %34 = load i32, ptr %33, align 4
  %35 = call ptr @proto_tree_add_item(ptr noundef %14, i32 noundef %34, ptr noundef %2, i32 noundef 2, i32 noundef %.sink53, i32 noundef 0)
  %36 = load ptr, ptr %0, align 8
  %.not52 = icmp eq ptr %36, null
  br i1 %.not52, label %47, label %37

37:                                               ; preds = %32
  %38 = getelementptr inbounds nuw i8, ptr %0, i64 8
  %39 = load ptr, ptr %38, align 8
  %40 = getelementptr inbounds nuw i8, ptr %39, i64 408
  %41 = load ptr, ptr %40, align 8
  %42 = call noalias dereferenceable_or_null(241) ptr @wmem_alloc(ptr noundef %41, i64 noundef 241) #15
  %43 = getelementptr inbounds nuw i8, ptr %35, i64 40
  %44 = load ptr, ptr %43, align 8
  call void @proto_item_fill_label(ptr noundef %44, ptr noundef %42, ptr noundef null)
  %45 = call ptr @strstr(ptr noundef %42, ptr noundef nonnull dereferenceable(1) @.str.70) #18
  %46 = getelementptr i8, ptr %45, i64 2
  br label %47

47:                                               ; preds = %32, %37, %26, %21
  %.0 = phi ptr [ @.str.136, %26 ], [ @.str.136, %21 ], [ %46, %37 ], [ null, %32 ]
  call void @llvm.lifetime.end.p0(i64 4, ptr nonnull %5) #16
  ret ptr %.0
}